
test_main.elf:     file format elf32-v850-rh850


Disassembly of section .vector:

00000000 <__reset>:
   0:	80 07 d0 07 	jr	7d0 <__text>
	...
  10:	80 07 68 08 	jr	878 <_default_int_handler>
	...
  20:	80 07 58 08 	jr	878 <_default_int_handler>
	...
  40:	80 07 38 08 	jr	878 <_default_int_handler>
	...
  50:	80 07 28 08 	jr	878 <_default_int_handler>
	...
  60:	80 07 18 08 	jr	878 <_default_int_handler>
	...
  80:	80 07 f8 07 	jr	878 <_default_int_handler>
	...
  90:	80 07 e8 07 	jr	878 <_default_int_handler>
	...
  a0:	80 07 d8 07 	jr	878 <_default_int_handler>
	...
  b0:	80 07 c8 07 	jr	878 <_default_int_handler>
	...
  c0:	80 07 b8 07 	jr	878 <_default_int_handler>
	...
  d0:	80 07 a8 07 	jr	878 <_default_int_handler>
	...
  e0:	80 07 98 07 	jr	878 <_default_int_handler>
	...
  f0:	80 07 88 07 	jr	878 <_default_int_handler>
	...
 100:	80 07 78 07 	jr	878 <_default_int_handler>
	...
 110:	80 07 68 07 	jr	878 <_default_int_handler>
	...
 120:	80 07 58 07 	jr	878 <_default_int_handler>
	...
 130:	80 07 48 07 	jr	878 <_default_int_handler>
	...
 140:	80 07 38 07 	jr	878 <_default_int_handler>
	...
 150:	80 07 28 07 	jr	878 <_default_int_handler>
	...
 160:	80 07 18 07 	jr	878 <_default_int_handler>
	...
 170:	80 07 08 07 	jr	878 <_default_int_handler>
	...
 180:	80 07 f8 06 	jr	878 <_default_int_handler>
	...
 190:	80 07 e8 06 	jr	878 <_default_int_handler>
	...
 1a0:	80 07 d8 06 	jr	878 <_default_int_handler>
	...
 1b0:	80 07 c8 06 	jr	878 <_default_int_handler>
	...
 1c0:	80 07 b8 06 	jr	878 <_default_int_handler>
	...
 1d0:	80 07 a8 06 	jr	878 <_default_int_handler>
	...
 1e0:	80 07 90 0b 	jr	d70 <_interrupt>
	...
 1f0:	80 07 88 06 	jr	878 <_default_int_handler>
	...
 200:	80 07 78 06 	jr	878 <_default_int_handler>
	...
 210:	80 07 68 06 	jr	878 <_default_int_handler>
	...
 220:	80 07 58 06 	jr	878 <_default_int_handler>
	...
 230:	80 07 48 06 	jr	878 <_default_int_handler>
	...
 240:	80 07 38 06 	jr	878 <_default_int_handler>
	...
 250:	80 07 28 06 	jr	878 <_default_int_handler>
	...
 260:	80 07 18 06 	jr	878 <_default_int_handler>
	...
 270:	80 07 08 06 	jr	878 <_default_int_handler>
	...
 280:	80 07 f8 05 	jr	878 <_default_int_handler>
	...
 290:	80 07 e8 05 	jr	878 <_default_int_handler>
	...
 2a0:	80 07 d8 05 	jr	878 <_default_int_handler>
	...
 2b0:	80 07 c8 05 	jr	878 <_default_int_handler>
	...
 2c0:	80 07 b0 0a 	jr	d70 <_interrupt>
	...
 2d0:	80 07 a8 05 	jr	878 <_default_int_handler>
	...
 2e0:	80 07 98 05 	jr	878 <_default_int_handler>
	...
 2f0:	80 07 88 05 	jr	878 <_default_int_handler>
	...
 300:	80 07 78 05 	jr	878 <_default_int_handler>
	...
 310:	80 07 68 05 	jr	878 <_default_int_handler>
	...
 320:	80 07 58 05 	jr	878 <_default_int_handler>
	...
 330:	80 07 48 05 	jr	878 <_default_int_handler>
	...
 340:	80 07 38 05 	jr	878 <_default_int_handler>
	...
 350:	80 07 28 05 	jr	878 <_default_int_handler>
	...
 360:	80 07 18 05 	jr	878 <_default_int_handler>
	...
 370:	80 07 08 05 	jr	878 <_default_int_handler>
	...
 380:	80 07 f8 04 	jr	878 <_default_int_handler>
	...
 390:	80 07 e8 04 	jr	878 <_default_int_handler>
	...
 3a0:	80 07 d8 04 	jr	878 <_default_int_handler>
	...
 3b0:	80 07 c8 04 	jr	878 <_default_int_handler>
	...
 3c0:	80 07 b8 04 	jr	878 <_default_int_handler>
	...
 3d0:	80 07 a8 04 	jr	878 <_default_int_handler>
	...
 3e0:	80 07 98 04 	jr	878 <_default_int_handler>
	...
 3f0:	80 07 88 04 	jr	878 <_default_int_handler>
	...
 400:	80 07 78 04 	jr	878 <_default_int_handler>
	...
 410:	80 07 68 04 	jr	878 <_default_int_handler>
	...
 420:	80 07 58 04 	jr	878 <_default_int_handler>
	...
 430:	80 07 48 04 	jr	878 <_default_int_handler>
	...
 440:	80 07 38 04 	jr	878 <_default_int_handler>
	...
 450:	80 07 28 04 	jr	878 <_default_int_handler>
	...
 460:	80 07 18 04 	jr	878 <_default_int_handler>
	...
 470:	80 07 08 04 	jr	878 <_default_int_handler>
	...
 480:	80 07 f8 03 	jr	878 <_default_int_handler>
	...
 490:	80 07 e8 03 	jr	878 <_default_int_handler>
	...
 4a0:	80 07 d8 03 	jr	878 <_default_int_handler>
	...
 4b0:	80 07 c8 03 	jr	878 <_default_int_handler>
	...
 4c0:	80 07 b8 03 	jr	878 <_default_int_handler>
	...
 4d0:	80 07 a8 03 	jr	878 <_default_int_handler>
	...
 4e0:	80 07 98 03 	jr	878 <_default_int_handler>
	...
 4f0:	80 07 88 03 	jr	878 <_default_int_handler>
	...
 500:	80 07 78 03 	jr	878 <_default_int_handler>
	...
 510:	80 07 68 03 	jr	878 <_default_int_handler>
	...
 520:	80 07 58 03 	jr	878 <_default_int_handler>
	...
 530:	80 07 48 03 	jr	878 <_default_int_handler>
	...
 540:	80 07 38 03 	jr	878 <_default_int_handler>
	...
 550:	80 07 28 03 	jr	878 <_default_int_handler>
	...
 560:	80 07 18 03 	jr	878 <_default_int_handler>
	...
 570:	80 07 08 03 	jr	878 <_default_int_handler>
	...
 580:	80 07 f8 02 	jr	878 <_default_int_handler>
	...
 590:	80 07 e8 02 	jr	878 <_default_int_handler>
	...
 5a0:	80 07 d8 02 	jr	878 <_default_int_handler>
	...
 5b0:	80 07 c8 02 	jr	878 <_default_int_handler>
	...
 5c0:	80 07 b8 02 	jr	878 <_default_int_handler>
	...
 5d0:	80 07 a8 02 	jr	878 <_default_int_handler>
	...
 5e0:	80 07 98 02 	jr	878 <_default_int_handler>
	...
 5f0:	80 07 88 02 	jr	878 <_default_int_handler>
	...
 600:	80 07 78 02 	jr	878 <_default_int_handler>
	...
 610:	80 07 68 02 	jr	878 <_default_int_handler>
	...
 620:	80 07 58 02 	jr	878 <_default_int_handler>
	...
 630:	80 07 48 02 	jr	878 <_default_int_handler>
	...
 640:	80 07 38 02 	jr	878 <_default_int_handler>
	...
 650:	80 07 28 02 	jr	878 <_default_int_handler>
	...
 660:	80 07 18 02 	jr	878 <_default_int_handler>
	...
 670:	80 07 08 02 	jr	878 <_default_int_handler>
	...
 680:	80 07 f8 01 	jr	878 <_default_int_handler>
	...
 690:	80 07 e8 01 	jr	878 <_default_int_handler>
	...
 6a0:	80 07 d8 01 	jr	878 <_default_int_handler>
	...
 6b0:	80 07 c8 01 	jr	878 <_default_int_handler>
	...
 6c0:	80 07 b8 01 	jr	878 <_default_int_handler>
	...
 6d0:	80 07 a8 01 	jr	878 <_default_int_handler>
	...
 6e0:	80 07 98 01 	jr	878 <_default_int_handler>
	...
 6f0:	80 07 88 01 	jr	878 <_default_int_handler>
	...
 700:	80 07 78 01 	jr	878 <_default_int_handler>
	...
 710:	80 07 68 01 	jr	878 <_default_int_handler>
	...
 720:	80 07 58 01 	jr	878 <_default_int_handler>
	...
 730:	80 07 48 01 	jr	878 <_default_int_handler>
	...
 740:	80 07 38 01 	jr	878 <_default_int_handler>
	...
 750:	80 07 28 01 	jr	878 <_default_int_handler>
	...
 760:	80 07 18 01 	jr	878 <_default_int_handler>
	...
 770:	80 07 08 01 	jr	878 <_default_int_handler>
	...
 780:	80 07 f8 00 	jr	878 <_default_int_handler>
	...
 790:	80 07 e8 00 	jr	878 <_default_int_handler>
	...
 7a0:	80 07 d8 00 	jr	878 <_default_int_handler>
	...
 7b0:	80 07 c8 00 	jr	878 <_default_int_handler>
	...
 7c0:	80 07 b8 00 	jr	878 <_default_int_handler>
	...

Disassembly of section .text:

000007d0 <__text>:
     7d0:	e0 07 60 01 	di	
     7d4:	40 1e ff 06 	movhi	1791, r0, sp
     7d8:	23 1e 14 76 	movea	30228, sp, sp
     7dc:	03 1e 00 04 	addi	1024, sp, sp
     7e0:	40 26 00 07 	movhi	1792, r0, gp
     7e4:	24 26 04 f0 	movea	-4092, gp, gp
     7e8:	80 ff a8 08 	jarl	1090 <_bss_clear>, lp
     7ec:	80 ff ee 08 	jarl	10da <_data_init>, lp
     7f0:	e0 87 60 01 	ei	
     7f4:	80 ff d4 07 	jarl	fc8 <_main>, lp
     7f8:	e0 07 20 01 	halt	
     7fc:	00 00       	nop	
	...

00000800 <_disable_int_all>:
     800:	5c 1a       	add	-4, sp
     802:	63 ef 01 00 	st.w	r29, 0[sp]
     806:	03 e8       	mov	sp, r29
     808:	e0 07 60 01 	di	
     80c:	1d 18       	mov	r29, sp
     80e:	23 ef 01 00 	ld.w	0[sp], r29
     812:	44 1a       	add	4, sp
     814:	7f 00       	jmp	[lp]

00000816 <_enable_int_all>:
     816:	5c 1a       	add	-4, sp
     818:	63 ef 01 00 	st.w	r29, 0[sp]
     81c:	03 e8       	mov	sp, r29
     81e:	e0 87 60 01 	ei	
     822:	1d 18       	mov	r29, sp
     824:	23 ef 01 00 	ld.w	0[sp], r29
     828:	44 1a       	add	4, sp
     82a:	7f 00       	jmp	[lp]

0000082c <_sil_wrb_mem>:
     82c:	5c 1a       	add	-4, sp
     82e:	63 ef 01 00 	st.w	r29, 0[sp]
     832:	58 1a       	add	-8, sp
     834:	03 e8       	mov	sp, r29
     836:	7d 37 05 00 	st.w	r6, 4[r29]
     83a:	07 50       	mov	r7, r10
     83c:	5d 57 00 00 	st.b	r10, 0[r29]
     840:	3d 57 05 00 	ld.w	4[r29], r10
     844:	1d 5f 00 00 	ld.b	0[r29], r11
     848:	4a 5f 00 00 	st.b	r11, 0[r10]
     84c:	00 00       	nop	
     84e:	1d 18       	mov	r29, sp
     850:	23 ef 09 00 	ld.w	8[sp], r29
     854:	4c 1a       	add	12, sp
     856:	7f 00       	jmp	[lp]

00000858 <_sil_reb_mem>:
     858:	5c 1a       	add	-4, sp
     85a:	63 ef 01 00 	st.w	r29, 0[sp]
     85e:	5c 1a       	add	-4, sp
     860:	03 e8       	mov	sp, r29
     862:	7d 37 01 00 	st.w	r6, 0[r29]
     866:	3d 57 01 00 	ld.w	0[r29], r10
     86a:	8a 57 01 00 	ld.bu	0[r10], r10
     86e:	1d 18       	mov	r29, sp
     870:	23 ef 05 00 	ld.w	4[sp], r29
     874:	48 1a       	add	8, sp
     876:	7f 00       	jmp	[lp]

00000878 <_default_int_handler>:
     878:	5c 1a       	add	-4, sp
     87a:	63 ef 01 00 	st.w	r29, 0[sp]
     87e:	03 e8       	mov	sp, r29
     880:	00 00       	nop	
     882:	1d 18       	mov	r29, sp
     884:	23 ef 01 00 	ld.w	0[sp], r29
     888:	44 1a       	add	4, sp
     88a:	7f 00       	jmp	[lp]

0000088c <_x_enable_int>:
     88c:	54 1a       	add	-12, sp
     88e:	63 ff 09 00 	st.w	lp, 8[sp]
     892:	63 e7 05 00 	st.w	r28, 4[sp]
     896:	63 ef 01 00 	st.w	r29, 0[sp]
     89a:	58 1a       	add	-8, sp
     89c:	03 e8       	mov	sp, r29
     89e:	7d 37 01 00 	st.w	r6, 0[r29]
     8a2:	3d 57 01 00 	ld.w	0[r29], r10
     8a6:	2b 06 88 f8 	mov	0x7ffff888, r11
     8aa:	ff 7f 
     8ac:	cb 51       	add	r11, r10
     8ae:	ca 51       	add	r10, r10
     8b0:	7d 57 05 00 	st.w	r10, 4[r29]
     8b4:	3d e7 05 00 	ld.w	4[r29], r28
     8b8:	3d 57 05 00 	ld.w	4[r29], r10
     8bc:	0a 30       	mov	r10, r6
     8be:	2a 06 58 08 	mov	0x858, r10
     8c2:	00 00 
     8c4:	80 ff 04 00 	jarl	8c8 <_x_enable_int+0x3c>, lp
     8c8:	44 fa       	add	4, lp
     8ca:	6a 00       	jmp	[r10]
     8cc:	8a 00       	zxb	r10
     8ce:	ca 56 bf 00 	andi	191, r10, r10
     8d2:	1c 30       	mov	r28, r6
     8d4:	0a 38       	mov	r10, r7
     8d6:	2a 06 2c 08 	mov	0x82c, r10
     8da:	00 00 
     8dc:	80 ff 04 00 	jarl	8e0 <_x_enable_int+0x54>, lp
     8e0:	44 fa       	add	4, lp
     8e2:	6a 00       	jmp	[r10]
     8e4:	00 00       	nop	
     8e6:	1d 18       	mov	r29, sp
     8e8:	23 ff 11 00 	ld.w	16[sp], lp
     8ec:	23 e7 0d 00 	ld.w	12[sp], r28
     8f0:	23 ef 09 00 	ld.w	8[sp], r29
     8f4:	03 1e 14 00 	addi	20, sp, sp
     8f8:	7f 00       	jmp	[lp]

000008fa <_x_clear_int>:
     8fa:	54 1a       	add	-12, sp
     8fc:	63 ff 09 00 	st.w	lp, 8[sp]
     900:	63 e7 05 00 	st.w	r28, 4[sp]
     904:	63 ef 01 00 	st.w	r29, 0[sp]
     908:	58 1a       	add	-8, sp
     90a:	03 e8       	mov	sp, r29
     90c:	7d 37 01 00 	st.w	r6, 0[r29]
     910:	3d 57 01 00 	ld.w	0[r29], r10
     914:	2b 06 88 f8 	mov	0x7ffff888, r11
     918:	ff 7f 
     91a:	cb 51       	add	r11, r10
     91c:	ca 51       	add	r10, r10
     91e:	7d 57 05 00 	st.w	r10, 4[r29]
     922:	3d e7 05 00 	ld.w	4[r29], r28
     926:	3d 57 05 00 	ld.w	4[r29], r10
     92a:	0a 30       	mov	r10, r6
     92c:	2a 06 58 08 	mov	0x858, r10
     930:	00 00 
     932:	80 ff 04 00 	jarl	936 <_x_clear_int+0x3c>, lp
     936:	44 fa       	add	4, lp
     938:	6a 00       	jmp	[r10]
     93a:	8a 00       	zxb	r10
     93c:	ca 56 7f 00 	andi	127, r10, r10
     940:	1c 30       	mov	r28, r6
     942:	0a 38       	mov	r10, r7
     944:	2a 06 2c 08 	mov	0x82c, r10
     948:	00 00 
     94a:	80 ff 04 00 	jarl	94e <_x_clear_int+0x54>, lp
     94e:	44 fa       	add	4, lp
     950:	6a 00       	jmp	[r10]
     952:	1d 18       	mov	r29, sp
     954:	23 ff 11 00 	ld.w	16[sp], lp
     958:	23 e7 0d 00 	ld.w	12[sp], r28
     95c:	23 ef 09 00 	ld.w	8[sp], r29
     960:	03 1e 14 00 	addi	20, sp, sp
     964:	7f 00       	jmp	[lp]

00000966 <_interrupt_handler>:
     966:	58 1a       	add	-8, sp
     968:	63 ff 05 00 	st.w	lp, 4[sp]
     96c:	63 ef 01 00 	st.w	r29, 0[sp]
     970:	58 1a       	add	-8, sp
     972:	03 e8       	mov	sp, r29
     974:	7d 37 01 00 	st.w	r6, 0[r29]
     978:	3d 57 01 00 	ld.w	0[r29], r10
     97c:	ca 56 ff ff 	andi	65535, r10, r10
     980:	0a 56 80 ff 	addi	-128, r10, r10
     984:	84 52       	shr	4, r10
     986:	7d 57 05 00 	st.w	r10, 4[r29]
     98a:	3d 57 05 00 	ld.w	4[r29], r10
     98e:	0a 30       	mov	r10, r6
     990:	2a 06 fa 08 	mov	0x8fa, r10
     994:	00 00 
     996:	80 ff 04 00 	jarl	99a <_interrupt_handler+0x34>, lp
     99a:	44 fa       	add	4, lp
     99c:	6a 00       	jmp	[r10]
     99e:	2a 06 16 08 	mov	0x816, r10
     9a2:	00 00 
     9a4:	80 ff 04 00 	jarl	9a8 <_interrupt_handler+0x42>, lp
     9a8:	44 fa       	add	4, lp
     9aa:	6a 00       	jmp	[r10]
     9ac:	3d 37 05 00 	ld.w	4[r29], r6
     9b0:	2a 06 84 0a 	mov	0xa84, r10
     9b4:	00 00 
     9b6:	80 ff 04 00 	jarl	9ba <_interrupt_handler+0x54>, lp
     9ba:	44 fa       	add	4, lp
     9bc:	6a 00       	jmp	[r10]
     9be:	2a 06 00 08 	mov	0x800, r10
     9c2:	00 00 
     9c4:	80 ff 04 00 	jarl	9c8 <_interrupt_handler+0x62>, lp
     9c8:	44 fa       	add	4, lp
     9ca:	6a 00       	jmp	[r10]
     9cc:	00 00       	nop	
     9ce:	1d 18       	mov	r29, sp
     9d0:	23 ff 0d 00 	ld.w	12[sp], lp
     9d4:	23 ef 09 00 	ld.w	8[sp], r29
     9d8:	03 1e 10 00 	addi	16, sp, sp
     9dc:	7f 00       	jmp	[lp]

000009de <_disable_int_all>:
     9de:	5c 1a       	add	-4, sp
     9e0:	63 ef 01 00 	st.w	r29, 0[sp]
     9e4:	03 e8       	mov	sp, r29
     9e6:	e0 07 60 01 	di	
     9ea:	1d 18       	mov	r29, sp
     9ec:	23 ef 01 00 	ld.w	0[sp], r29
     9f0:	44 1a       	add	4, sp
     9f2:	7f 00       	jmp	[lp]

000009f4 <_enable_int_all>:
     9f4:	5c 1a       	add	-4, sp
     9f6:	63 ef 01 00 	st.w	r29, 0[sp]
     9fa:	03 e8       	mov	sp, r29
     9fc:	e0 87 60 01 	ei	
     a00:	1d 18       	mov	r29, sp
     a02:	23 ef 01 00 	ld.w	0[sp], r29
     a06:	44 1a       	add	4, sp
     a08:	7f 00       	jmp	[lp]

00000a0a <_register_interrupt_handler>:
     a0a:	58 1a       	add	-8, sp
     a0c:	63 ff 05 00 	st.w	lp, 4[sp]
     a10:	63 ef 01 00 	st.w	r29, 0[sp]
     a14:	58 1a       	add	-8, sp
     a16:	03 e8       	mov	sp, r29
     a18:	7d 37 05 00 	st.w	r6, 4[r29]
     a1c:	7d 3f 01 00 	st.w	r7, 0[r29]
     a20:	3d 5f 05 00 	ld.w	4[r29], r11
     a24:	20 56 7f 00 	movea	127, r0, r10
     a28:	ea 59       	cmp	r10, r11
     a2a:	cb 25       	bh	a72 <_register_interrupt_handler+0x68>
     a2c:	2a 06 de 09 	mov	0x9de, r10
     a30:	00 00 
     a32:	80 ff 04 00 	jarl	a36 <_register_interrupt_handler+0x2c>, lp
     a36:	44 fa       	add	4, lp
     a38:	6a 00       	jmp	[r10]
     a3a:	3d 57 05 00 	ld.w	4[r29], r10
     a3e:	0a 30       	mov	r10, r6
     a40:	2a 06 8c 08 	mov	0x88c, r10
     a44:	00 00 
     a46:	80 ff 04 00 	jarl	a4a <_register_interrupt_handler+0x40>, lp
     a4a:	44 fa       	add	4, lp
     a4c:	6a 00       	jmp	[r10]
     a4e:	2b 06 04 70 	mov	0x6ff7004, r11
     a52:	ff 06 
     a54:	3d 57 05 00 	ld.w	4[r29], r10
     a58:	c2 52       	shl	2, r10
     a5a:	cb 51       	add	r11, r10
     a5c:	3d 5f 01 00 	ld.w	0[r29], r11
     a60:	6a 5f 01 00 	st.w	r11, 0[r10]
     a64:	2a 06 f4 09 	mov	0x9f4, r10
     a68:	00 00 
     a6a:	80 ff 04 00 	jarl	a6e <_register_interrupt_handler+0x64>, lp
     a6e:	44 fa       	add	4, lp
     a70:	6a 00       	jmp	[r10]
     a72:	00 00       	nop	
     a74:	1d 18       	mov	r29, sp
     a76:	23 ff 0d 00 	ld.w	12[sp], lp
     a7a:	23 ef 09 00 	ld.w	8[sp], r29
     a7e:	03 1e 10 00 	addi	16, sp, sp
     a82:	7f 00       	jmp	[lp]

00000a84 <_do_interrupt_handler>:
     a84:	58 1a       	add	-8, sp
     a86:	63 ff 05 00 	st.w	lp, 4[sp]
     a8a:	63 ef 01 00 	st.w	r29, 0[sp]
     a8e:	5c 1a       	add	-4, sp
     a90:	03 e8       	mov	sp, r29
     a92:	7d 37 01 00 	st.w	r6, 0[r29]
     a96:	3d 5f 01 00 	ld.w	0[r29], r11
     a9a:	20 56 7f 00 	movea	127, r0, r10
     a9e:	ea 59       	cmp	r10, r11
     aa0:	9b 1d       	bh	ad2 <_do_interrupt_handler+0x4e>
     aa2:	2b 06 04 70 	mov	0x6ff7004, r11
     aa6:	ff 06 
     aa8:	3d 57 01 00 	ld.w	0[r29], r10
     aac:	c2 52       	shl	2, r10
     aae:	cb 51       	add	r11, r10
     ab0:	2a 57 01 00 	ld.w	0[r10], r10
     ab4:	60 52       	cmp	0, r10
     ab6:	e2 0d       	be	ad2 <_do_interrupt_handler+0x4e>
     ab8:	2b 06 04 70 	mov	0x6ff7004, r11
     abc:	ff 06 
     abe:	3d 57 01 00 	ld.w	0[r29], r10
     ac2:	c2 52       	shl	2, r10
     ac4:	cb 51       	add	r11, r10
     ac6:	2a 57 01 00 	ld.w	0[r10], r10
     aca:	80 ff 04 00 	jarl	ace <_do_interrupt_handler+0x4a>, lp
     ace:	44 fa       	add	4, lp
     ad0:	6a 00       	jmp	[r10]
     ad2:	1d 18       	mov	r29, sp
     ad4:	23 ff 09 00 	ld.w	8[sp], lp
     ad8:	23 ef 05 00 	ld.w	4[sp], r29
     adc:	4c 1a       	add	12, sp
     ade:	7f 00       	jmp	[lp]

00000ae0 <_test_print>:
     ae0:	5c 1a       	add	-4, sp
     ae2:	63 ef 01 00 	st.w	r29, 0[sp]
     ae6:	58 1a       	add	-8, sp
     ae8:	03 e8       	mov	sp, r29
     aea:	7d 37 01 00 	st.w	r6, 0[r29]
     aee:	7d 07 05 00 	st.w	r0, 4[r29]
     af2:	c5 15       	br	b1a <_test_print+0x3a>
     af4:	20 56 07 fa 	movea	-1529, r0, r10
     af8:	3d 5f 05 00 	ld.w	4[r29], r11
     afc:	3d 67 01 00 	ld.w	0[r29], r12
     b00:	cc 59       	add	r12, r11
     b02:	0b 5f 00 00 	ld.b	0[r11], r11
     b06:	d8 5a       	shl	24, r11
     b08:	b8 5a       	sar	24, r11
     b0a:	8b 00       	zxb	r11
     b0c:	4a 5f 00 00 	st.b	r11, 0[r10]
     b10:	3d 57 05 00 	ld.w	4[r29], r10
     b14:	41 52       	add	1, r10
     b16:	7d 57 05 00 	st.w	r10, 4[r29]
     b1a:	3d 57 05 00 	ld.w	4[r29], r10
     b1e:	3d 5f 01 00 	ld.w	0[r29], r11
     b22:	cb 51       	add	r11, r10
     b24:	0a 57 00 00 	ld.b	0[r10], r10
     b28:	d8 52       	shl	24, r10
     b2a:	b8 52       	sar	24, r10
     b2c:	60 52       	cmp	0, r10
     b2e:	ba e5       	bne	af4 <_test_print+0x14>
     b30:	1d 18       	mov	r29, sp
     b32:	23 ef 09 00 	ld.w	8[sp], r29
     b36:	4c 1a       	add	12, sp
     b38:	7f 00       	jmp	[lp]

00000b3a <_sil_wrb_mem>:
     b3a:	5c 1a       	add	-4, sp
     b3c:	63 ef 01 00 	st.w	r29, 0[sp]
     b40:	58 1a       	add	-8, sp
     b42:	03 e8       	mov	sp, r29
     b44:	7d 37 05 00 	st.w	r6, 4[r29]
     b48:	07 50       	mov	r7, r10
     b4a:	5d 57 00 00 	st.b	r10, 0[r29]
     b4e:	3d 57 05 00 	ld.w	4[r29], r10
     b52:	1d 5f 00 00 	ld.b	0[r29], r11
     b56:	4a 5f 00 00 	st.b	r11, 0[r10]
     b5a:	00 00       	nop	
     b5c:	1d 18       	mov	r29, sp
     b5e:	23 ef 09 00 	ld.w	8[sp], r29
     b62:	4c 1a       	add	12, sp
     b64:	7f 00       	jmp	[lp]

00000b66 <_sil_reb_mem>:
     b66:	5c 1a       	add	-4, sp
     b68:	63 ef 01 00 	st.w	r29, 0[sp]
     b6c:	5c 1a       	add	-4, sp
     b6e:	03 e8       	mov	sp, r29
     b70:	7d 37 01 00 	st.w	r6, 0[r29]
     b74:	3d 57 01 00 	ld.w	0[r29], r10
     b78:	8a 57 01 00 	ld.bu	0[r10], r10
     b7c:	1d 18       	mov	r29, sp
     b7e:	23 ef 05 00 	ld.w	4[sp], r29
     b82:	48 1a       	add	8, sp
     b84:	7f 00       	jmp	[lp]

00000b86 <_sil_wrh_mem>:
     b86:	5c 1a       	add	-4, sp
     b88:	63 ef 01 00 	st.w	r29, 0[sp]
     b8c:	58 1a       	add	-8, sp
     b8e:	03 e8       	mov	sp, r29
     b90:	7d 37 05 00 	st.w	r6, 4[r29]
     b94:	07 50       	mov	r7, r10
     b96:	7d 57 00 00 	st.h	r10, 0[r29]
     b9a:	3d 57 05 00 	ld.w	4[r29], r10
     b9e:	3d 5f 00 00 	ld.h	0[r29], r11
     ba2:	6a 5f 00 00 	st.h	r11, 0[r10]
     ba6:	00 00       	nop	
     ba8:	1d 18       	mov	r29, sp
     baa:	23 ef 09 00 	ld.w	8[sp], r29
     bae:	4c 1a       	add	12, sp
     bb0:	7f 00       	jmp	[lp]

00000bb2 <_serial_interrupt_handler>:
     bb2:	58 1a       	add	-8, sp
     bb4:	63 ff 05 00 	st.w	lp, 4[sp]
     bb8:	63 ef 01 00 	st.w	r29, 0[sp]
     bbc:	03 e8       	mov	sp, r29
     bbe:	26 06 68 11 	mov	0x1168, r6
     bc2:	00 00 
     bc4:	2a 06 e0 0a 	mov	0xae0, r10
     bc8:	00 00 
     bca:	80 ff 04 00 	jarl	bce <_serial_interrupt_handler+0x1c>, lp
     bce:	44 fa       	add	4, lp
     bd0:	6a 00       	jmp	[r10]
     bd2:	00 00       	nop	
     bd4:	1d 18       	mov	r29, sp
     bd6:	23 ff 05 00 	ld.w	4[sp], lp
     bda:	23 ef 01 00 	ld.w	0[sp], r29
     bde:	48 1a       	add	8, sp
     be0:	7f 00       	jmp	[lp]

00000be2 <_timer_init>:
     be2:	58 1a       	add	-8, sp
     be4:	63 ff 05 00 	st.w	lp, 4[sp]
     be8:	63 ef 01 00 	st.w	r29, 0[sp]
     bec:	5c 1a       	add	-4, sp
     bee:	03 e8       	mov	sp, r29
     bf0:	20 36 b0 f5 	movea	-2640, r0, r6
     bf4:	2a 06 66 0b 	mov	0xb66, r10
     bf8:	00 00 
     bfa:	80 ff 04 00 	jarl	bfe <_timer_init+0x1c>, lp
     bfe:	44 fa       	add	4, lp
     c00:	6a 00       	jmp	[r10]
     c02:	5d 57 03 00 	st.b	r10, 3[r29]
     c06:	1d 57 03 00 	ld.b	3[r29], r10
     c0a:	18 5a       	mov	-8, r11
     c0c:	4b 51       	and	r11, r10
     c0e:	5d 57 03 00 	st.b	r10, 3[r29]
     c12:	1d 57 03 00 	ld.b	3[r29], r10
     c16:	8a 56 05 00 	ori	5, r10, r10
     c1a:	5d 57 03 00 	st.b	r10, 3[r29]
     c1e:	bd 57 03 00 	ld.bu	3[r29], r10
     c22:	20 36 b0 f5 	movea	-2640, r0, r6
     c26:	0a 38       	mov	r10, r7
     c28:	2a 06 3a 0b 	mov	0xb3a, r10
     c2c:	00 00 
     c2e:	80 ff 04 00 	jarl	c32 <_timer_init+0x50>, lp
     c32:	44 fa       	add	4, lp
     c34:	6a 00       	jmp	[r10]
     c36:	20 36 b1 f5 	movea	-2639, r0, r6
     c3a:	2a 06 66 0b 	mov	0xb66, r10
     c3e:	00 00 
     c40:	80 ff 04 00 	jarl	c44 <_timer_init+0x62>, lp
     c44:	44 fa       	add	4, lp
     c46:	6a 00       	jmp	[r10]
     c48:	5d 57 03 00 	st.b	r10, 3[r29]
     c4c:	5d 07 03 00 	st.b	r0, 3[r29]
     c50:	bd 57 03 00 	ld.bu	3[r29], r10
     c54:	20 36 b1 f5 	movea	-2639, r0, r6
     c58:	0a 38       	mov	r10, r7
     c5a:	2a 06 3a 0b 	mov	0xb3a, r10
     c5e:	00 00 
     c60:	80 ff 04 00 	jarl	c64 <_timer_init+0x82>, lp
     c64:	44 fa       	add	4, lp
     c66:	6a 00       	jmp	[r10]
     c68:	20 36 16 00 	movea	22, r0, r6
     c6c:	27 06 1e 0f 	mov	0xf1e, r7
     c70:	00 00 
     c72:	2a 06 0a 0a 	mov	0xa0a, r10
     c76:	00 00 
     c78:	80 ff 04 00 	jarl	c7c <_timer_init+0x9a>, lp
     c7c:	44 fa       	add	4, lp
     c7e:	6a 00       	jmp	[r10]
     c80:	20 36 24 00 	movea	36, r0, r6
     c84:	27 06 b2 0b 	mov	0xbb2, r7
     c88:	00 00 
     c8a:	2a 06 0a 0a 	mov	0xa0a, r10
     c8e:	00 00 
     c90:	80 ff 04 00 	jarl	c94 <_timer_init+0xb2>, lp
     c94:	44 fa       	add	4, lp
     c96:	6a 00       	jmp	[r10]
     c98:	1d 18       	mov	r29, sp
     c9a:	23 ff 09 00 	ld.w	8[sp], lp
     c9e:	23 ef 05 00 	ld.w	4[sp], r29
     ca2:	4c 1a       	add	12, sp
     ca4:	7f 00       	jmp	[lp]

00000ca6 <_timer_start>:
     ca6:	58 1a       	add	-8, sp
     ca8:	63 ff 05 00 	st.w	lp, 4[sp]
     cac:	63 ef 01 00 	st.w	r29, 0[sp]
     cb0:	5c 1a       	add	-4, sp
     cb2:	03 e8       	mov	sp, r29
     cb4:	06 50       	mov	r6, r10
     cb6:	7d 57 00 00 	st.h	r10, 0[r29]
     cba:	fd 57 01 00 	ld.hu	0[r29], r10
     cbe:	60 52       	cmp	0, r10
     cc0:	aa 05       	bne	cc4 <_timer_start+0x1e>
     cc2:	f5 25       	br	d10 <_timer_start+0x6a>
     cc4:	3d 57 00 00 	ld.h	0[r29], r10
     cc8:	5f 52       	add	-1, r10
     cca:	ca 00       	zxh	r10
     ccc:	20 36 b6 f5 	movea	-2634, r0, r6
     cd0:	0a 38       	mov	r10, r7
     cd2:	2a 06 86 0b 	mov	0xb86, r10
     cd6:	00 00 
     cd8:	80 ff 04 00 	jarl	cdc <_timer_start+0x36>, lp
     cdc:	44 fa       	add	4, lp
     cde:	6a 00       	jmp	[r10]
     ce0:	20 36 b0 f5 	movea	-2640, r0, r6
     ce4:	2a 06 66 0b 	mov	0xb66, r10
     ce8:	00 00 
     cea:	80 ff 04 00 	jarl	cee <_timer_start+0x48>, lp
     cee:	44 fa       	add	4, lp
     cf0:	6a 00       	jmp	[r10]
     cf2:	8a 00       	zxb	r10
     cf4:	20 5e 80 ff 	movea	-128, r0, r11
     cf8:	0b 51       	or	r11, r10
     cfa:	8a 00       	zxb	r10
     cfc:	20 36 b0 f5 	movea	-2640, r0, r6
     d00:	0a 38       	mov	r10, r7
     d02:	2a 06 3a 0b 	mov	0xb3a, r10
     d06:	00 00 
     d08:	80 ff 04 00 	jarl	d0c <_timer_start+0x66>, lp
     d0c:	44 fa       	add	4, lp
     d0e:	6a 00       	jmp	[r10]
     d10:	1d 18       	mov	r29, sp
     d12:	23 ff 09 00 	ld.w	8[sp], lp
     d16:	23 ef 05 00 	ld.w	4[sp], r29
     d1a:	4c 1a       	add	12, sp
     d1c:	7f 00       	jmp	[lp]

00000d1e <_timer_stop>:
     d1e:	58 1a       	add	-8, sp
     d20:	63 ff 05 00 	st.w	lp, 4[sp]
     d24:	63 ef 01 00 	st.w	r29, 0[sp]
     d28:	03 e8       	mov	sp, r29
     d2a:	20 36 b0 f5 	movea	-2640, r0, r6
     d2e:	2a 06 66 0b 	mov	0xb66, r10
     d32:	00 00 
     d34:	80 ff 04 00 	jarl	d38 <_timer_stop+0x1a>, lp
     d38:	44 fa       	add	4, lp
     d3a:	6a 00       	jmp	[r10]
     d3c:	8a 00       	zxb	r10
     d3e:	ca 56 7f 00 	andi	127, r10, r10
     d42:	20 36 b0 f5 	movea	-2640, r0, r6
     d46:	0a 38       	mov	r10, r7
     d48:	2a 06 3a 0b 	mov	0xb3a, r10
     d4c:	00 00 
     d4e:	80 ff 04 00 	jarl	d52 <_timer_stop+0x34>, lp
     d52:	44 fa       	add	4, lp
     d54:	6a 00       	jmp	[r10]
     d56:	1d 18       	mov	r29, sp
     d58:	23 ff 05 00 	ld.w	4[sp], lp
     d5c:	23 ef 01 00 	ld.w	0[sp], r29
     d60:	48 1a       	add	8, sp
     d62:	7f 00       	jmp	[lp]
	...

00000d70 <_interrupt>:
     d70:	03 1e b0 ff 	addi	-80, sp, sp
     d74:	63 f7 0d 00 	st.w	ep, 12[sp]
     d78:	03 f0       	mov	sp, ep
     d7a:	25 0d       	sst.w	r1, 72[ep]
     d7c:	23 35       	sst.w	r6, 68[ep]
     d7e:	21 3d       	sst.w	r7, 64[ep]
     d80:	1f 45       	sst.w	r8, 60[ep]
     d82:	1d 4d       	sst.w	r9, 56[ep]
     d84:	1b 55       	sst.w	r10, 52[ep]
     d86:	19 5d       	sst.w	r11, 48[ep]
     d88:	17 65       	sst.w	r12, 44[ep]
     d8a:	15 6d       	sst.w	r13, 40[ep]
     d8c:	13 75       	sst.w	r14, 36[ep]
     d8e:	11 7d       	sst.w	r15, 32[ep]
     d90:	0f 85       	sst.w	r16, 28[ep]
     d92:	0d 8d       	sst.w	r17, 24[ep]
     d94:	0b 95       	sst.w	r18, 20[ep]
     d96:	09 9d       	sst.w	r19, 16[ep]
     d98:	05 fd       	sst.w	lp, 8[ep]
     d9a:	e0 5f 40 00 	stsr	eipc/vip/mpm, r11
     d9e:	03 5d       	sst.w	r11, 4[ep]
     da0:	e1 5f 40 00 	stsr	eipsw/mpc, r11
     da4:	01 5d       	sst.w	r11, 0[ep]
     da6:	e4 37 40 00 	stsr	ecr/vmecr, r6
     daa:	40 56 00 00 	movhi	0, r0, r10
     dae:	2a 56 66 09 	movea	2406, r10, r10
     db2:	40 fe 00 00 	movhi	0, r0, lp
     db6:	3f fe bc 0d 	movea	3516, lp, lp
     dba:	6a 00       	jmp	[r10]

00000dbc <end_int_handler>:
     dbc:	03 f0       	mov	sp, ep
     dbe:	02 5d       	sld.w	4[ep], r11
     dc0:	eb 07 20 00 	ldsr	r11, eipc/vip/mpm
     dc4:	00 5d       	sld.w	0[ep], r11
     dc6:	eb 0f 20 00 	ldsr	r11, eipsw/mpc
     dca:	24 0d       	sld.w	72[ep], r1
     dcc:	22 35       	sld.w	68[ep], r6
     dce:	20 3d       	sld.w	64[ep], r7
     dd0:	1e 45       	sld.w	60[ep], r8
     dd2:	1c 4d       	sld.w	56[ep], r9
     dd4:	1a 55       	sld.w	52[ep], r10
     dd6:	18 5d       	sld.w	48[ep], r11
     dd8:	16 65       	sld.w	44[ep], r12
     dda:	14 6d       	sld.w	40[ep], r13
     ddc:	12 75       	sld.w	36[ep], r14
     dde:	10 7d       	sld.w	32[ep], r15
     de0:	0e 85       	sld.w	28[ep], r16
     de2:	0c 8d       	sld.w	24[ep], r17
     de4:	0a 95       	sld.w	20[ep], r18
     de6:	08 9d       	sld.w	16[ep], r19
     de8:	04 fd       	sld.w	8[ep], lp
     dea:	1e 1e 50 00 	addi	80, ep, sp
     dee:	06 f5       	sld.w	12[ep], ep
     df0:	e0 07 48 01 	eiret	
	...

00000e00 <_test_print>:
     e00:	5c 1a       	add	-4, sp
     e02:	63 ef 01 00 	st.w	r29, 0[sp]
     e06:	58 1a       	add	-8, sp
     e08:	03 e8       	mov	sp, r29
     e0a:	7d 37 01 00 	st.w	r6, 0[r29]
     e0e:	7d 07 05 00 	st.w	r0, 4[r29]
     e12:	c5 15       	br	e3a <_test_print+0x3a>
     e14:	20 56 07 fa 	movea	-1529, r0, r10
     e18:	3d 5f 05 00 	ld.w	4[r29], r11
     e1c:	3d 67 01 00 	ld.w	0[r29], r12
     e20:	cc 59       	add	r12, r11
     e22:	0b 5f 00 00 	ld.b	0[r11], r11
     e26:	d8 5a       	shl	24, r11
     e28:	b8 5a       	sar	24, r11
     e2a:	8b 00       	zxb	r11
     e2c:	4a 5f 00 00 	st.b	r11, 0[r10]
     e30:	3d 57 05 00 	ld.w	4[r29], r10
     e34:	41 52       	add	1, r10
     e36:	7d 57 05 00 	st.w	r10, 4[r29]
     e3a:	3d 57 05 00 	ld.w	4[r29], r10
     e3e:	3d 5f 01 00 	ld.w	0[r29], r11
     e42:	cb 51       	add	r11, r10
     e44:	0a 57 00 00 	ld.b	0[r10], r10
     e48:	d8 52       	shl	24, r10
     e4a:	b8 52       	sar	24, r10
     e4c:	60 52       	cmp	0, r10
     e4e:	ba e5       	bne	e14 <_test_print+0x14>
     e50:	1d 18       	mov	r29, sp
     e52:	23 ef 09 00 	ld.w	8[sp], r29
     e56:	4c 1a       	add	12, sp
     e58:	7f 00       	jmp	[lp]

00000e5a <_test_print_one>:
     e5a:	5c 1a       	add	-4, sp
     e5c:	63 ef 01 00 	st.w	r29, 0[sp]
     e60:	5c 1a       	add	-4, sp
     e62:	03 e8       	mov	sp, r29
     e64:	7d 37 01 00 	st.w	r6, 0[r29]
     e68:	20 56 07 fa 	movea	-1529, r0, r10
     e6c:	3d 5f 01 00 	ld.w	0[r29], r11
     e70:	0b 5f 00 00 	ld.b	0[r11], r11
     e74:	d8 5a       	shl	24, r11
     e76:	b8 5a       	sar	24, r11
     e78:	8b 00       	zxb	r11
     e7a:	4a 5f 00 00 	st.b	r11, 0[r10]
     e7e:	1d 18       	mov	r29, sp
     e80:	23 ef 05 00 	ld.w	4[sp], r29
     e84:	48 1a       	add	8, sp
     e86:	7f 00       	jmp	[lp]

00000e88 <_do_idle>:
     e88:	5c 1a       	add	-4, sp
     e8a:	63 ef 01 00 	st.w	r29, 0[sp]
     e8e:	03 e8       	mov	sp, r29
     e90:	e0 07 20 01 	halt	
	...
     e9c:	00 00       	nop	
     e9e:	1d 18       	mov	r29, sp
     ea0:	23 ef 01 00 	ld.w	0[sp], r29
     ea4:	44 1a       	add	4, sp
     ea6:	7f 00       	jmp	[lp]

00000ea8 <_sil_wrb_mem>:
     ea8:	5c 1a       	add	-4, sp
     eaa:	63 ef 01 00 	st.w	r29, 0[sp]
     eae:	58 1a       	add	-8, sp
     eb0:	03 e8       	mov	sp, r29
     eb2:	7d 37 05 00 	st.w	r6, 4[r29]
     eb6:	07 50       	mov	r7, r10
     eb8:	5d 57 00 00 	st.b	r10, 0[r29]
     ebc:	3d 57 05 00 	ld.w	4[r29], r10
     ec0:	1d 5f 00 00 	ld.b	0[r29], r11
     ec4:	4a 5f 00 00 	st.b	r11, 0[r10]
     ec8:	00 00       	nop	
     eca:	1d 18       	mov	r29, sp
     ecc:	23 ef 09 00 	ld.w	8[sp], r29
     ed0:	4c 1a       	add	12, sp
     ed2:	7f 00       	jmp	[lp]

00000ed4 <_sil_reb_mem>:
     ed4:	5c 1a       	add	-4, sp
     ed6:	63 ef 01 00 	st.w	r29, 0[sp]
     eda:	5c 1a       	add	-4, sp
     edc:	03 e8       	mov	sp, r29
     ede:	7d 37 01 00 	st.w	r6, 0[r29]
     ee2:	3d 57 01 00 	ld.w	0[r29], r10
     ee6:	8a 57 01 00 	ld.bu	0[r10], r10
     eea:	1d 18       	mov	r29, sp
     eec:	23 ef 05 00 	ld.w	4[sp], r29
     ef0:	48 1a       	add	8, sp
     ef2:	7f 00       	jmp	[lp]

00000ef4 <_sil_wrw_mem>:
     ef4:	5c 1a       	add	-4, sp
     ef6:	63 ef 01 00 	st.w	r29, 0[sp]
     efa:	58 1a       	add	-8, sp
     efc:	03 e8       	mov	sp, r29
     efe:	7d 37 05 00 	st.w	r6, 4[r29]
     f02:	7d 3f 01 00 	st.w	r7, 0[r29]
     f06:	3d 57 05 00 	ld.w	4[r29], r10
     f0a:	3d 5f 01 00 	ld.w	0[r29], r11
     f0e:	6a 5f 01 00 	st.w	r11, 0[r10]
     f12:	00 00       	nop	
     f14:	1d 18       	mov	r29, sp
     f16:	23 ef 09 00 	ld.w	8[sp], r29
     f1a:	4c 1a       	add	12, sp
     f1c:	7f 00       	jmp	[lp]

00000f1e <_timer_interrupt_handler>:
     f1e:	58 1a       	add	-8, sp
     f20:	63 ff 05 00 	st.w	lp, 4[sp]
     f24:	63 ef 01 00 	st.w	r29, 0[sp]
     f28:	5c 1a       	add	-4, sp
     f2a:	03 e8       	mov	sp, r29
     f2c:	5d 07 03 00 	st.b	r0, 3[r29]
     f30:	26 06 00 30 	mov	0x8ff3000, r6
     f34:	ff 08 
     f36:	01 3a       	mov	1, r7
     f38:	2a 06 a8 0e 	mov	0xea8, r10
     f3c:	00 00 
     f3e:	80 ff 04 00 	jarl	f42 <_timer_interrupt_handler+0x24>, lp
     f42:	44 fa       	add	4, lp
     f44:	6a 00       	jmp	[r10]
     f46:	26 06 00 10 	mov	0x8ff1000, r6
     f4a:	ff 08 
     f4c:	2a 06 d4 0e 	mov	0xed4, r10
     f50:	00 00 
     f52:	80 ff 04 00 	jarl	f56 <_timer_interrupt_handler+0x38>, lp
     f56:	44 fa       	add	4, lp
     f58:	6a 00       	jmp	[r10]
     f5a:	5d 57 03 00 	st.b	r10, 3[r29]
     f5e:	bd 57 03 00 	ld.bu	3[r29], r10
     f62:	60 52       	cmp	0, r10
     f64:	a2 2d       	be	fb8 <_timer_interrupt_handler+0x9a>
     f66:	26 06 b4 11 	mov	0x11b4, r6
     f6a:	00 00 
     f6c:	2a 06 00 0e 	mov	0xe00, r10
     f70:	00 00 
     f72:	80 ff 04 00 	jarl	f76 <_timer_interrupt_handler+0x58>, lp
     f76:	44 fa       	add	4, lp
     f78:	6a 00       	jmp	[r10]
     f7a:	26 06 14 72 	mov	0x6ff7214, r6
     f7e:	ff 06 
     f80:	2a 06 00 0e 	mov	0xe00, r10
     f84:	00 00 
     f86:	80 ff 04 00 	jarl	f8a <_timer_interrupt_handler+0x6c>, lp
     f8a:	44 fa       	add	4, lp
     f8c:	6a 00       	jmp	[r10]
     f8e:	26 06 c3 11 	mov	0x11c3, r6
     f92:	00 00 
     f94:	2a 06 5a 0e 	mov	0xe5a, r10
     f98:	00 00 
     f9a:	80 ff 04 00 	jarl	f9e <_timer_interrupt_handler+0x80>, lp
     f9e:	44 fa       	add	4, lp
     fa0:	6a 00       	jmp	[r10]
     fa2:	26 06 00 10 	mov	0x8ff1000, r6
     fa6:	ff 08 
     fa8:	00 3a       	mov	0, r7
     faa:	2a 06 a8 0e 	mov	0xea8, r10
     fae:	00 00 
     fb0:	80 ff 04 00 	jarl	fb4 <_timer_interrupt_handler+0x96>, lp
     fb4:	44 fa       	add	4, lp
     fb6:	6a 00       	jmp	[r10]
     fb8:	00 00       	nop	
     fba:	1d 18       	mov	r29, sp
     fbc:	23 ff 09 00 	ld.w	8[sp], lp
     fc0:	23 ef 05 00 	ld.w	4[sp], r29
     fc4:	4c 1a       	add	12, sp
     fc6:	7f 00       	jmp	[lp]

00000fc8 <_main>:
     fc8:	58 1a       	add	-8, sp
     fca:	63 ff 05 00 	st.w	lp, 4[sp]
     fce:	63 ef 01 00 	st.w	r29, 0[sp]
     fd2:	5c 1a       	add	-4, sp
     fd4:	03 e8       	mov	sp, r29
     fd6:	2a 06 00 70 	mov	0x6ff7000, r10
     fda:	ff 06 
     fdc:	2a 57 01 00 	ld.w	0[r10], r10
     fe0:	0a 30       	mov	r10, r6
     fe2:	2a 06 40 11 	mov	0x1140, r10
     fe6:	00 00 
     fe8:	80 ff 04 00 	jarl	fec <_main+0x24>, lp
     fec:	44 fa       	add	4, lp
     fee:	6a 00       	jmp	[r10]
     ff0:	7d 57 01 00 	st.w	r10, 0[r29]
     ff4:	2a 06 e2 0b 	mov	0xbe2, r10
     ff8:	00 00 
     ffa:	80 ff 04 00 	jarl	ffe <_main+0x36>, lp
     ffe:	44 fa       	add	4, lp
    1000:	6a 00       	jmp	[r10]
    1002:	20 36 10 27 	movea	10000, r0, r6
    1006:	2a 06 a6 0c 	mov	0xca6, r10
    100a:	00 00 
    100c:	80 ff 04 00 	jarl	1010 <_main+0x48>, lp
    1010:	44 fa       	add	4, lp
    1012:	6a 00       	jmp	[r10]
    1014:	2a 06 00 70 	mov	0x6ff7000, r10
    1018:	ff 06 
    101a:	2a 57 01 00 	ld.w	0[r10], r10
    101e:	26 06 00 20 	mov	0x8ff2000, r6
    1022:	ff 08 
    1024:	0a 38       	mov	r10, r7
    1026:	2a 06 f4 0e 	mov	0xef4, r10
    102a:	00 00 
    102c:	80 ff 04 00 	jarl	1030 <_main+0x68>, lp
    1030:	44 fa       	add	4, lp
    1032:	6a 00       	jmp	[r10]
    1034:	3d 57 01 00 	ld.w	0[r29], r10
    1038:	26 06 04 20 	mov	0x8ff2004, r6
    103c:	ff 08 
    103e:	0a 38       	mov	r10, r7
    1040:	2a 06 f4 0e 	mov	0xef4, r10
    1044:	00 00 
    1046:	80 ff 04 00 	jarl	104a <_main+0x82>, lp
    104a:	44 fa       	add	4, lp
    104c:	6a 00       	jmp	[r10]
    104e:	2a 06 14 72 	mov	0x6ff7214, r10
    1052:	ff 06 
    1054:	40 36 ff 08 	movhi	2303, r0, r6
    1058:	0a 38       	mov	r10, r7
    105a:	2a 06 f4 0e 	mov	0xef4, r10
    105e:	00 00 
    1060:	80 ff 04 00 	jarl	1064 <_main+0x9c>, lp
    1064:	44 fa       	add	4, lp
    1066:	6a 00       	jmp	[r10]
    1068:	26 06 04 00 	mov	0x8ff0004, r6
    106c:	ff 08 
    106e:	20 3e 00 04 	movea	1024, r0, r7
    1072:	2a 06 f4 0e 	mov	0xef4, r10
    1076:	00 00 
    1078:	80 ff 04 00 	jarl	107c <_main+0xb4>, lp
    107c:	44 fa       	add	4, lp
    107e:	6a 00       	jmp	[r10]
    1080:	2a 06 88 0e 	mov	0xe88, r10
    1084:	00 00 
    1086:	80 ff 04 00 	jarl	108a <_main+0xc2>, lp
    108a:	44 fa       	add	4, lp
    108c:	6a 00       	jmp	[r10]
    108e:	95 fd       	br	1080 <_main+0xb8>

00001090 <_bss_clear>:
    1090:	5c 1a       	add	-4, sp
    1092:	63 ef 01 00 	st.w	r29, 0[sp]
    1096:	58 1a       	add	-8, sp
    1098:	03 e8       	mov	sp, r29
    109a:	2a 06 04 70 	mov	0x6ff7004, r10
    109e:	ff 06 
    10a0:	7d 57 05 00 	st.w	r10, 4[r29]
    10a4:	2a 06 14 76 	mov	0x6ff7614, r10
    10a8:	ff 06 
    10aa:	7d 57 01 00 	st.w	r10, 0[r29]
    10ae:	a5 0d       	br	10c2 <_bss_clear+0x32>
    10b0:	3d 57 05 00 	ld.w	4[r29], r10
    10b4:	4a 07 00 00 	st.b	r0, 0[r10]
    10b8:	3d 57 05 00 	ld.w	4[r29], r10
    10bc:	41 52       	add	1, r10
    10be:	7d 57 05 00 	st.w	r10, 4[r29]
    10c2:	3d 5f 05 00 	ld.w	4[r29], r11
    10c6:	3d 57 01 00 	ld.w	0[r29], r10
    10ca:	ea 59       	cmp	r10, r11
    10cc:	a1 f5       	bl	10b0 <_bss_clear+0x20>
    10ce:	00 00       	nop	
    10d0:	1d 18       	mov	r29, sp
    10d2:	23 ef 09 00 	ld.w	8[sp], r29
    10d6:	4c 1a       	add	12, sp
    10d8:	7f 00       	jmp	[lp]

000010da <_data_init>:
    10da:	5c 1a       	add	-4, sp
    10dc:	63 ef 01 00 	st.w	r29, 0[sp]
    10e0:	54 1a       	add	-12, sp
    10e2:	03 e8       	mov	sp, r29
    10e4:	2a 06 c8 11 	mov	0x11c8, r10
    10e8:	00 00 
    10ea:	7d 57 09 00 	st.w	r10, 8[r29]
    10ee:	2a 06 cc 11 	mov	0x11cc, r10
    10f2:	00 00 
    10f4:	7d 57 01 00 	st.w	r10, 0[r29]
    10f8:	2a 06 00 70 	mov	0x6ff7000, r10
    10fc:	ff 06 
    10fe:	7d 57 05 00 	st.w	r10, 4[r29]
    1102:	b5 15       	br	1128 <_data_init+0x4e>
    1104:	3d 57 09 00 	ld.w	8[r29], r10
    1108:	8a 5f 01 00 	ld.bu	0[r10], r11
    110c:	3d 57 05 00 	ld.w	4[r29], r10
    1110:	4a 5f 00 00 	st.b	r11, 0[r10]
    1114:	3d 57 05 00 	ld.w	4[r29], r10
    1118:	41 52       	add	1, r10
    111a:	7d 57 05 00 	st.w	r10, 4[r29]
    111e:	3d 57 09 00 	ld.w	8[r29], r10
    1122:	41 52       	add	1, r10
    1124:	7d 57 09 00 	st.w	r10, 8[r29]
    1128:	3d 5f 09 00 	ld.w	8[r29], r11
    112c:	3d 57 01 00 	ld.w	0[r29], r10
    1130:	ea 59       	cmp	r10, r11
    1132:	91 ed       	bl	1104 <_data_init+0x2a>
    1134:	1d 18       	mov	r29, sp
    1136:	23 ef 0d 00 	ld.w	12[sp], r29
    113a:	03 1e 10 00 	addi	16, sp, sp
    113e:	7f 00       	jmp	[lp]

00001140 <_strlen>:
    1140:	06 50       	mov	r6, r10
    1142:	0a 5f 00 00 	ld.b	0[r10], r11
    1146:	d8 5a       	shl	24, r11
    1148:	b2 05       	be	114e <_strlen+0xe>
    114a:	41 52       	add	1, r10
    114c:	b5 fd       	br	1142 <_strlen+0x2>
    114e:	a6 51       	sub	r6, r10
    1150:	7f 00       	jmp	[lp]
